EXPORTS
    _Z12test_algebrav @1
    _Z8line_cmpRK4lineS1_ @2
    _Z9test_geomv @3
    _ZN4lineC1Eiiii @4
    _ZN8chipmunk10PrimeSieve7isPrimeEi @5
    _ZN8chipmunk10PrimeSieve9getPrimesEv @6
    _ZN8chipmunk10PrimeSieveC1Ei @7
    _ZN8chipmunk10PrimeSieveC2Ei @8
    _ZN8chipmunk10union_areaESt6vectorISt4pairIS1_IiiES2_ESaIS3_EE @9
    _ZN8chipmunk11greatestBitEi @10
    _ZN8chipmunk12factorialDivEii @11
    _ZN8chipmunk13DirectedGraph3bfsEiiRNS0_6statusE @12
    _ZN8chipmunk13DirectedGraph4edgeC1Eii @13
    _ZN8chipmunk13DirectedGraph7addEdgeEiii @14
    _ZN8chipmunk13DirectedGraphC1Ei @15
    _ZN8chipmunk13DirectedGraphC2Ei @16
    _ZN8chipmunk14manhattan_distESt4pairIddES1_ @17
    _ZN8chipmunk14manhattan_distEdddd @18
    _ZN8chipmunk3dotIiEERKT_RKSt4pairIS1_S1_ES7_ @19
    _ZN8chipmunk3dotIiEERKT_S3_S3_S3_S3_ @20
    _ZN8chipmunk3gcdEii @21
    _ZN8chipmunk3lcmEii @22
    _ZN8chipmunk3modEii @23
    _ZN8chipmunk3nCrEii @24
    _ZN8chipmunk3nPrEii @25
    _ZN8chipmunk4areaESt6vectorISt4pairIiiESaIS2_EE @26
    _ZN8chipmunk4distESt4pairIddES1_ @27
    _ZN8chipmunk4distEdddd @28
    _ZN8chipmunk5crossIiEERKT_RKSt4pairIS1_S1_ES7_ @29
    _ZN8chipmunk5crossIiEERKT_S3_S3_S3_S3_ @30
    _ZN8chipmunk7in_polyESt6vectorISt4pairIddESaIS2_EES2_ @31
    _ZN8chipmunk7in_polyESt6vectorIdSaIdEES2_dd @32
    _ZN8chipmunk7isPrimeEi @33
    _ZN8chipmunk8PURQ_BIT2atEi @34
    _ZN8chipmunk8PURQ_BIT3sumEi @35
    _ZN8chipmunk8PURQ_BIT4findEi @36
    _ZN8chipmunk8PURQ_BIT4sizeEv @37
    _ZN8chipmunk8PURQ_BIT5findGEi @38
    _ZN8chipmunk8PURQ_BIT5scaleEi @39
    _ZN8chipmunk8PURQ_BIT6updateEii @40
    _ZN8chipmunk8PURQ_BIT6updateEiii @41
    _ZN8chipmunk8PURQ_BITC1Ei @42
    _ZN8chipmunk8PURQ_BITC2Ei @43
    _ZN8chipmunk8RUPQ_BIT2atEi @44
    _ZN8chipmunk8RUPQ_BIT3sumEi @45
    _ZN8chipmunk8RUPQ_BIT4sizeEv @46
    _ZN8chipmunk8RUPQ_BIT6updateEii @47
    _ZN8chipmunk8RUPQ_BIT6updateEiii @48
    _ZN8chipmunk8RUPQ_BITC1Ei @49
    _ZN8chipmunk8RUPQ_BITC2Ei @50
    _ZN8chipmunk8RUPQ_BITD1Ev @51
    _ZN8chipmunk8RURQ_BIT11internal_atEii @52
    _ZN8chipmunk8RURQ_BIT15internal_updateEiii @53
    _ZN8chipmunk8RURQ_BIT3sumEi @54
    _ZN8chipmunk8RURQ_BIT4sizeEv @55
    _ZN8chipmunk8RURQ_BIT6updateEiii @56
    _ZN8chipmunk8RURQ_BITC1Ei @57
    _ZN8chipmunk8RURQ_BITC2Ei @58
    _ZN8chipmunk9factorialEi @59
    _ZN8chipmunk9perimeterESt6vectorISt4pairIiiESaIS2_EE @60
    _ZN9__gnu_cxx13new_allocatorI4lineE10deallocateEPS1_j @61
    _ZN9__gnu_cxx13new_allocatorI4lineE7destroyIS1_EEvPT_ @62
    _ZN9__gnu_cxx13new_allocatorI4lineE8allocateEjPKv @63
    _ZN9__gnu_cxx13new_allocatorI4lineE9constructIS1_IS1_EEEvPT_DpOT0_ @64
    _ZN9__gnu_cxx13new_allocatorI4lineEC2Ev @65
    _ZN9__gnu_cxx13new_allocatorI4lineED2Ev @66
    _ZN9__gnu_cxx13new_allocatorIN8chipmunk13DirectedGraph4edgeEE10deallocateEPS3_j @67
    _ZN9__gnu_cxx13new_allocatorIN8chipmunk13DirectedGraph4edgeEE7destroyIS3_EEvPT_ @68
    _ZN9__gnu_cxx13new_allocatorIN8chipmunk13DirectedGraph4edgeEE8allocateEjPKv @69
    _ZN9__gnu_cxx13new_allocatorIN8chipmunk13DirectedGraph4edgeEE9constructIS3_IS3_EEEvPT_DpOT0_ @70
    _ZN9__gnu_cxx13new_allocatorIN8chipmunk13DirectedGraph4edgeEEC2Ev @71
    _ZN9__gnu_cxx13new_allocatorINSt8__detail10_Hash_nodeISt4pairIKiiELb0EEEE10deallocateEPS6_j @72
    _ZN9__gnu_cxx13new_allocatorINSt8__detail10_Hash_nodeISt4pairIKiiELb0EEEE8allocateEjPKv @73
    _ZN9__gnu_cxx13new_allocatorINSt8__detail10_Hash_nodeISt4pairIKiiELb0EEEEC2ERKS7_ @74
    _ZN9__gnu_cxx13new_allocatorINSt8__detail10_Hash_nodeISt4pairIKiiELb0EEEEC2Ev @75
    _ZN9__gnu_cxx13new_allocatorINSt8__detail10_Hash_nodeISt4pairIKiiELb0EEEED2Ev @76
    _ZN9__gnu_cxx13new_allocatorIPNSt8__detail15_Hash_node_baseEE10deallocateEPS3_j @77
    _ZN9__gnu_cxx13new_allocatorIPNSt8__detail15_Hash_node_baseEE8allocateEjPKv @78
    _ZN9__gnu_cxx13new_allocatorIPNSt8__detail15_Hash_node_baseEEC2Ev @79
    _ZN9__gnu_cxx13new_allocatorIPNSt8__detail15_Hash_node_baseEED2Ev @80
    _ZN9__gnu_cxx13new_allocatorIPiE10deallocateEPS1_j @81
    _ZN9__gnu_cxx13new_allocatorIPiE8allocateEjPKv @82
    _ZN9__gnu_cxx13new_allocatorIPiEC2Ev @83
    _ZN9__gnu_cxx13new_allocatorIPiED2Ev @84
    _ZN9__gnu_cxx13new_allocatorISt13_Rb_tree_nodeIiEE10deallocateEPS2_j @85
    _ZN9__gnu_cxx13new_allocatorISt13_Rb_tree_nodeIiEE7destroyIiEEvPT_ @86
    _ZN9__gnu_cxx13new_allocatorISt13_Rb_tree_nodeIiEE8allocateEjPKv @87
    _ZN9__gnu_cxx13new_allocatorISt13_Rb_tree_nodeIiEE9constructIiIRKiEEEvPT_DpOT0_ @88
    _ZN9__gnu_cxx13new_allocatorISt13_Rb_tree_nodeIiEEC2Ev @89
    _ZN9__gnu_cxx13new_allocatorISt13_Rb_tree_nodeIiEED2Ev @90
    _ZN9__gnu_cxx13new_allocatorISt4pairIKiiEE7destroyIS3_EEvPT_ @91
    _ZN9__gnu_cxx13new_allocatorISt4pairIKiiEE9constructIS3_IRKSt21piecewise_construct_tSt5tupleIIRS2_EES9_IIEEEEEvPT_DpOT0_ @92
    _ZN9__gnu_cxx13new_allocatorISt4pairIKiiEEC2Ev @93
    _ZN9__gnu_cxx13new_allocatorISt4pairIKiiEED2Ev @94
    _ZN9__gnu_cxx13new_allocatorIiE10deallocateEPij @95
    _ZN9__gnu_cxx13new_allocatorIiE7destroyIiEEvPT_ @96
    _ZN9__gnu_cxx13new_allocatorIiE8allocateEjPKv @97
    _ZN9__gnu_cxx13new_allocatorIiE9constructIiIRKiEEEvPT_DpOT0_ @98
    _ZN9__gnu_cxx13new_allocatorIiEC2ERKS1_ @99
    _ZN9__gnu_cxx13new_allocatorIiEC2Ev @100
    _ZN9__gnu_cxx13new_allocatorIiED2Ev @101
    _ZN9__gnu_cxx16__aligned_bufferISt4pairIKiiEE6_M_ptrEv @102
    _ZN9__gnu_cxx16__aligned_bufferISt4pairIKiiEE7_M_addrEv @103
    _ZN9__gnu_cxx16__aligned_bufferIiE6_M_ptrEv @104
    _ZN9__gnu_cxx16__aligned_bufferIiE7_M_addrEv @105
    _ZN9__gnu_cxx17__normal_iteratorIP4lineSt6vectorIS1_SaIS1_EEEC1ERKS2_ @106
    _ZN9__gnu_cxx17__normal_iteratorIP4lineSt6vectorIS1_SaIS1_EEEmmEv @107
    _ZN9__gnu_cxx17__normal_iteratorIP4lineSt6vectorIS1_SaIS1_EEEppEv @108
    _ZN9__gnu_cxx17__normal_iteratorIPiSt6vectorIiSaIiEEEC1ERKS1_ @109
    _ZN9__gnu_cxx17__normal_iteratorIPiSt6vectorIiSaIiEEEppEv @110
    _ZN9__gnu_cxx5__ops14_Iter_comp_valIPFbRK4lineS4_EEC1ES6_ @111
    _ZN9__gnu_cxx5__ops14_Iter_comp_valIPFbRK4lineS4_EEclINS_17__normal_iteratorIPS2_St6vectorIS2_SaIS2_EEEES2_EEbT_RT0_ @112
    _ZN9__gnu_cxx5__ops14_Val_comp_iterIPFbRK4lineS4_EEC1ES6_ @113
    _ZN9__gnu_cxx5__ops14_Val_comp_iterIPFbRK4lineS4_EEclIS2_NS_17__normal_iteratorIPS2_St6vectorIS2_SaIS2_EEEEEEbRT_T0_ @114
    _ZN9__gnu_cxx5__ops15_Iter_comp_iterIPFbRK4lineS4_EEC1ES6_ @115
    _ZN9__gnu_cxx5__ops15_Iter_comp_iterIPFbRK4lineS4_EEclINS_17__normal_iteratorIPS2_St6vectorIS2_SaIS2_EEEESE_EEbT_T0_ @116
    _ZN9__gnu_cxx5__ops15__iter_comp_valIPFbRK4lineS4_EEENS0_14_Iter_comp_valIT_EENS0_15_Iter_comp_iterIS8_EE @117
    _ZN9__gnu_cxx5__ops15__val_comp_iterIPFbRK4lineS4_EEENS0_14_Val_comp_iterIT_EENS0_15_Iter_comp_iterIS8_EE @118
    _ZN9__gnu_cxx5__ops16__iter_comp_iterIPFbRK4lineS4_EEENS0_15_Iter_comp_iterIT_EES8_ @119
    _ZN9__gnu_cxxeqIP4lineSt6vectorIS1_SaIS1_EEEEbRKNS_17__normal_iteratorIT_T0_EESB_ @120
    _ZN9__gnu_cxxltIP4lineSt6vectorIS1_SaIS1_EEEEbRKNS_17__normal_iteratorIT_T0_EESB_ @121
    _ZN9__gnu_cxxmiIP4lineSt6vectorIS1_SaIS1_EEEENS_17__normal_iteratorIT_T0_E15difference_typeERKS9_SC_ @122
    _ZN9__gnu_cxxneIP4lineSt6vectorIS1_SaIS1_EEEEbRKNS_17__normal_iteratorIT_T0_EESB_ @123
    _ZN9__gnu_cxxneIPiSt6vectorIiSaIiEEEEbRKNS_17__normal_iteratorIT_T0_EESA_ @124
    _ZNK9__gnu_cxx13new_allocatorI4lineE8max_sizeEv @125
    _ZNK9__gnu_cxx13new_allocatorIN8chipmunk13DirectedGraph4edgeEE8max_sizeEv @126
    _ZNK9__gnu_cxx13new_allocatorINSt8__detail10_Hash_nodeISt4pairIKiiELb0EEEE8max_sizeEv @127
    _ZNK9__gnu_cxx13new_allocatorIPNSt8__detail15_Hash_node_baseEE8max_sizeEv @128
    _ZNK9__gnu_cxx13new_allocatorIPiE8max_sizeEv @129
    _ZNK9__gnu_cxx13new_allocatorISt13_Rb_tree_nodeIiEE8max_sizeEv @130
    _ZNK9__gnu_cxx13new_allocatorIiE8max_sizeEv @131
    _ZNK9__gnu_cxx16__aligned_bufferISt4pairIKiiEE6_M_ptrEv @132
    _ZNK9__gnu_cxx16__aligned_bufferISt4pairIKiiEE7_M_addrEv @133
    _ZNK9__gnu_cxx16__aligned_bufferIiE6_M_ptrEv @134
    _ZNK9__gnu_cxx16__aligned_bufferIiE7_M_addrEv @135
    _ZNK9__gnu_cxx17__normal_iteratorIP4lineSt6vectorIS1_SaIS1_EEE4baseEv @136
    _ZNK9__gnu_cxx17__normal_iteratorIP4lineSt6vectorIS1_SaIS1_EEEdeEv @137
    _ZNK9__gnu_cxx17__normal_iteratorIP4lineSt6vectorIS1_SaIS1_EEEmiEi @138
    _ZNK9__gnu_cxx17__normal_iteratorIP4lineSt6vectorIS1_SaIS1_EEEplEi @139
    _ZNK9__gnu_cxx17__normal_iteratorIPiSt6vectorIiSaIiEEE4baseEv @140
    _ZNK9__gnu_cxx17__normal_iteratorIPiSt6vectorIiSaIiEEEdeEv @141
    _ZNKSt10_HashtableIiSt4pairIKiiESaIS2_ENSt8__detail10_Select1stESt8equal_toIiESt4hashIiENS4_18_Mod_range_hashingENS4_20_Default_ranged_hashENS4_20_Prime_rehash_policyENS4_17_Hashtable_traitsILb0ELb0ELb1EEEE12_M_find_nodeEjRS1_j @142
    _ZNKSt10_HashtableIiSt4pairIKiiESaIS2_ENSt8__detail10_Select1stESt8equal_toIiESt4hashIiENS4_18_Mod_range_hashingENS4_20_Default_ranged_hashENS4_20_Prime_rehash_policyENS4_17_Hashtable_traitsILb0ELb0ELb1EEEE15_M_bucket_indexEPNS4_10_Hash_nodeIS2_Lb0EEE @143
    _ZNKSt10_HashtableIiSt4pairIKiiESaIS2_ENSt8__detail10_Select1stESt8equal_toIiESt4hashIiENS4_18_Mod_range_hashingENS4_20_Default_ranged_hashENS4_20_Prime_rehash_policyENS4_17_Hashtable_traitsILb0ELb0ELb1EEEE15_M_bucket_indexERS1_j @144
    _ZNKSt10_HashtableIiSt4pairIKiiESaIS2_ENSt8__detail10_Select1stESt8equal_toIiESt4hashIiENS4_18_Mod_range_hashingENS4_20_Default_ranged_hashENS4_20_Prime_rehash_policyENS4_17_Hashtable_traitsILb0ELb0ELb1EEEE19_M_find_before_nodeEjRS1_j @145
    _ZNKSt10_HashtableIiSt4pairIKiiESaIS2_ENSt8__detail10_Select1stESt8equal_toIiESt4hashIiENS4_18_Mod_range_hashingENS4_20_Default_ranged_hashENS4_20_Prime_rehash_policyENS4_17_Hashtable_traitsILb0ELb0ELb1EEEE21_M_uses_single_bucketEPPNS4_15_Hash_node_baseE @146
    _ZNKSt10_HashtableIiSt4pairIKiiESaIS2_ENSt8__detail10_Select1stESt8equal_toIiESt4hashIiENS4_18_Mod_range_hashingENS4_20_Default_ranged_hashENS4_20_Prime_rehash_policyENS4_17_Hashtable_traitsILb0ELb0ELb1EEEE8_M_beginEv @147
    _ZNKSt11_Deque_baseIiSaIiEE19_M_get_Tp_allocatorEv @148
    _ZNKSt11_Deque_baseIiSaIiEE20_M_get_map_allocatorEv @149
    _ZNKSt12_Vector_baseI4lineSaIS0_EE19_M_get_Tp_allocatorEv @150
    _ZNKSt12_Vector_baseIN8chipmunk13DirectedGraph4edgeESaIS2_EE19_M_get_Tp_allocatorEv @151
    _ZNKSt12_Vector_baseIiSaIiEE13get_allocatorEv @152
    _ZNKSt12_Vector_baseIiSaIiEE19_M_get_Tp_allocatorEv @153
    _ZNKSt13_Rb_tree_nodeIiE9_M_valptrEv @154
    _ZNKSt13move_iteratorIP4lineE4baseEv @155
    _ZNKSt13move_iteratorIP4lineEdeEv @156
    _ZNKSt13move_iteratorIPN8chipmunk13DirectedGraph4edgeEE4baseEv @157
    _ZNKSt13move_iteratorIPN8chipmunk13DirectedGraph4edgeEEdeEv @158
    _ZNKSt13move_iteratorIPiE4baseEv @159
    _ZNKSt13move_iteratorIPiEdeEv @160
    _ZNKSt15_Deque_iteratorIiRiPiEdeEv @161
    _ZNKSt17_Rb_tree_iteratorIiEeqERKS0_ @162
    _ZNKSt23_Rb_tree_const_iteratorIiEdeEv @163
    _ZNKSt23_Rb_tree_const_iteratorIiEneERKS0_ @164
    _ZNKSt3setIiSt4lessIiESaIiEE3endEv @165
    _ZNKSt3setIiSt4lessIiESaIiEE5beginEv @166
    _ZNKSt4hashIiEclEi @167
    _ZNKSt4lessIiEclERKiS2_ @168
    _ZNKSt5dequeIiSaIiEE5emptyEv @169
    _ZNKSt5queueIiSt5dequeIiSaIiEEE5emptyEv @170
    _ZNKSt6vectorI4lineSaIS0_EE12_M_check_lenEjPKc @171
    _ZNKSt6vectorI4lineSaIS0_EE4sizeEv @172
    _ZNKSt6vectorI4lineSaIS0_EE8max_sizeEv @173
    _ZNKSt6vectorIN8chipmunk13DirectedGraph4edgeESaIS2_EE12_M_check_lenEjPKc @174
    _ZNKSt6vectorIN8chipmunk13DirectedGraph4edgeESaIS2_EE4sizeEv @175
    _ZNKSt6vectorIN8chipmunk13DirectedGraph4edgeESaIS2_EE8max_sizeEv @176
    _ZNKSt6vectorISt4pairIS0_IiiES1_ESaIS2_EE4sizeEv @177
    _ZNKSt6vectorISt4pairIddESaIS1_EE4sizeEv @178
    _ZNKSt6vectorISt4pairIiiESaIS1_EE4sizeEv @179
    _ZNKSt6vectorIdSaIdEE4sizeEv @180
    _ZNKSt6vectorIiSaIiEE12_M_check_lenEjPKc @181
    _ZNKSt6vectorIiSaIiEE4sizeEv @182
    _ZNKSt6vectorIiSaIiEE8max_sizeEv @183
    _ZNKSt8_Rb_treeIiiSt9_IdentityIiESt4lessIiESaIiEE3endEv @184
    _ZNKSt8_Rb_treeIiiSt9_IdentityIiESt4lessIiESaIiEE5beginEv @185
    _ZNKSt8__detail10_Hash_nodeISt4pairIKiiELb0EE7_M_nextEv @186
    _ZNKSt8__detail10_Select1stclIRKSt4pairIKiiEEEDTcl3getILi0EEcl7forwardIT_Efp_EEEOS7_ @187
    _ZNKSt8__detail10_Select1stclIRSt4pairIKiiEEEDTcl3getILi0EEcl7forwardIT_Efp_EEEOS6_ @188
    _ZNKSt8__detail14_Node_iteratorISt4pairIKiiELb0ELb0EEptEv @189
    _ZNKSt8__detail15_Hash_code_baseIiSt4pairIKiiENS_10_Select1stESt4hashIiENS_18_Mod_range_hashingENS_20_Default_ranged_hashELb0EE10_M_extractEv @190
    _ZNKSt8__detail15_Hash_code_baseIiSt4pairIKiiENS_10_Select1stESt4hashIiENS_18_Mod_range_hashingENS_20_Default_ranged_hashELb0EE12_M_hash_codeERS2_ @191
    _ZNKSt8__detail15_Hash_code_baseIiSt4pairIKiiENS_10_Select1stESt4hashIiENS_18_Mod_range_hashingENS_20_Default_ranged_hashELb0EE13_M_store_codeEPNS_10_Hash_nodeIS3_Lb0EEEj @192
    _ZNKSt8__detail15_Hash_code_baseIiSt4pairIKiiENS_10_Select1stESt4hashIiENS_18_Mod_range_hashingENS_20_Default_ranged_hashELb0EE15_M_bucket_indexEPKNS_10_Hash_nodeIS3_Lb0EEEj @193
    _ZNKSt8__detail15_Hash_code_baseIiSt4pairIKiiENS_10_Select1stESt4hashIiENS_18_Mod_range_hashingENS_20_Default_ranged_hashELb0EE15_M_bucket_indexERS2_jj @194
    _ZNKSt8__detail15_Hash_code_baseIiSt4pairIKiiENS_10_Select1stESt4hashIiENS_18_Mod_range_hashingENS_20_Default_ranged_hashELb0EE5_M_h1Ev @195
    _ZNKSt8__detail15_Hash_code_baseIiSt4pairIKiiENS_10_Select1stESt4hashIiENS_18_Mod_range_hashingENS_20_Default_ranged_hashELb0EE5_M_h2Ev @196
    _ZNKSt8__detail15_Hashtable_baseIiSt4pairIKiiENS_10_Select1stESt8equal_toIiESt4hashIiENS_18_Mod_range_hashingENS_20_Default_ranged_hashENS_17_Hashtable_traitsILb0ELb0ELb1EEEE5_M_eqEv @197
    _ZNKSt8__detail15_Hashtable_baseIiSt4pairIKiiENS_10_Select1stESt8equal_toIiESt4hashIiENS_18_Mod_range_hashingENS_20_Default_ranged_hashENS_17_Hashtable_traitsILb0ELb0ELb1EEEE9_M_equalsERS2_jPNS_10_Hash_nodeIS3_Lb0EEE @198
    _ZNKSt8__detail18_Mod_range_hashingclEjj @199
    _ZNKSt8__detail20_Prime_rehash_policy8_M_stateEv @200
    _ZNKSt8__detail21_Hash_node_value_baseISt4pairIKiiEE4_M_vEv @201
    _ZNKSt8__detail21_Hash_node_value_baseISt4pairIKiiEE9_M_valptrEv @202
    _ZNKSt8equal_toIiEclERKiS2_ @203
    _ZNKSt9_IdentityIiEclERKi @204
    _ZNSaI4lineEC2Ev @205
    _ZNSaI4lineED2Ev @206
    _ZNSaIN8chipmunk13DirectedGraph4edgeEEC2Ev @207
    _ZNSaINSt8__detail10_Hash_nodeISt4pairIKiiELb0EEEEC1IS3_EERKSaIT_E @208
    _ZNSaINSt8__detail10_Hash_nodeISt4pairIKiiELb0EEEEC2ERKS5_ @209
    _ZNSaINSt8__detail10_Hash_nodeISt4pairIKiiELb0EEEED1Ev @210
    _ZNSaINSt8__detail10_Hash_nodeISt4pairIKiiELb0EEEED2Ev @211
    _ZNSaIPNSt8__detail15_Hash_node_baseEEC1INS_10_Hash_nodeISt4pairIKiiELb0EEEEERKSaIT_E @212
    _ZNSaIPNSt8__detail15_Hash_node_baseEED1Ev @213
    _ZNSaIPiEC1IiEERKSaIT_E @214
    _ZNSaIPiED1Ev @215
    _ZNSaISt13_Rb_tree_nodeIiEEC2Ev @216
    _ZNSaISt13_Rb_tree_nodeIiEED2Ev @217
    _ZNSaISt4pairIKiiEEC1Ev @218
    _ZNSaISt4pairIKiiEEC1INSt8__detail10_Hash_nodeIS1_Lb0EEEEERKSaIT_E @219
    _ZNSaISt4pairIKiiEED1Ev @220
    _ZNSaIiEC1ERKS_ @221
    _ZNSaIiEC1Ev @222
    _ZNSaIiEC2ERKS_ @223
    _ZNSaIiEC2Ev @224
    _ZNSaIiED1Ev @225
    _ZNSaIiED2Ev @226
    _ZNSt10_HashtableIiSt4pairIKiiESaIS2_ENSt8__detail10_Select1stESt8equal_toIiESt4hashIiENS4_18_Mod_range_hashingENS4_20_Default_ranged_hashENS4_20_Prime_rehash_policyENS4_17_Hashtable_traitsILb0ELb0ELb1EEEE13_M_rehash_auxEjSt17integral_constantIbLb1EE @227
    _ZNSt10_HashtableIiSt4pairIKiiESaIS2_ENSt8__detail10_Select1stESt8equal_toIiESt4hashIiENS4_18_Mod_range_hashingENS4_20_Default_ranged_hashENS4_20_Prime_rehash_policyENS4_17_Hashtable_traitsILb0ELb0ELb1EEEE19_M_allocate_bucketsEj @228
    _ZNSt10_HashtableIiSt4pairIKiiESaIS2_ENSt8__detail10_Select1stESt8equal_toIiESt4hashIiENS4_18_Mod_range_hashingENS4_20_Default_ranged_hashENS4_20_Prime_rehash_policyENS4_17_Hashtable_traitsILb0ELb0ELb1EEEE21_M_deallocate_bucketsEPPNS4_15_Hash_node_baseEj @229
    _ZNSt10_HashtableIiSt4pairIKiiESaIS2_ENSt8__detail10_Select1stESt8equal_toIiESt4hashIiENS4_18_Mod_range_hashingENS4_20_Default_ranged_hashENS4_20_Prime_rehash_policyENS4_17_Hashtable_traitsILb0ELb0ELb1EEEE21_M_deallocate_bucketsEv @230
    _ZNSt10_HashtableIiSt4pairIKiiESaIS2_ENSt8__detail10_Select1stESt8equal_toIiESt4hashIiENS4_18_Mod_range_hashingENS4_20_Default_ranged_hashENS4_20_Prime_rehash_policyENS4_17_Hashtable_traitsILb0ELb0ELb1EEEE21_M_insert_unique_nodeEjjPNS4_10_Hash_nodeIS2_Lb0EEE @231
    _ZNSt10_HashtableIiSt4pairIKiiESaIS2_ENSt8__detail10_Select1stESt8equal_toIiESt4hashIiENS4_18_Mod_range_hashingENS4_20_Default_ranged_hashENS4_20_Prime_rehash_policyENS4_17_Hashtable_traitsILb0ELb0ELb1EEEE22_M_insert_bucket_beginEjPNS4_10_Hash_nodeIS2_Lb0EEE @232
    _ZNSt10_HashtableIiSt4pairIKiiESaIS2_ENSt8__detail10_Select1stESt8equal_toIiESt4hashIiENS4_18_Mod_range_hashingENS4_20_Default_ranged_hashENS4_20_Prime_rehash_policyENS4_17_Hashtable_traitsILb0ELb0ELb1EEEE5clearEv @233
    _ZNSt10_HashtableIiSt4pairIKiiESaIS2_ENSt8__detail10_Select1stESt8equal_toIiESt4hashIiENS4_18_Mod_range_hashingENS4_20_Default_ranged_hashENS4_20_Prime_rehash_policyENS4_17_Hashtable_traitsILb0ELb0ELb1EEEE9_M_rehashEjRKj @234
    _ZNSt10_HashtableIiSt4pairIKiiESaIS2_ENSt8__detail10_Select1stESt8equal_toIiESt4hashIiENS4_18_Mod_range_hashingENS4_20_Default_ranged_hashENS4_20_Prime_rehash_policyENS4_17_Hashtable_traitsILb0ELb0ELb1EEEEC1EjRKS9_RKS7_RKS3_ @235
    _ZNSt10_HashtableIiSt4pairIKiiESaIS2_ENSt8__detail10_Select1stESt8equal_toIiESt4hashIiENS4_18_Mod_range_hashingENS4_20_Default_ranged_hashENS4_20_Prime_rehash_policyENS4_17_Hashtable_traitsILb0ELb0ELb1EEEEC1EjRKS9_RKSA_RKSB_RKS7_RKS5_RKS3_ @236
    _ZNSt10_HashtableIiSt4pairIKiiESaIS2_ENSt8__detail10_Select1stESt8equal_toIiESt4hashIiENS4_18_Mod_range_hashingENS4_20_Default_ranged_hashENS4_20_Prime_rehash_policyENS4_17_Hashtable_traitsILb0ELb0ELb1EEEED1Ev @237
    _ZNSt10_Head_baseILj0ERKiLb0EE7_M_headERS2_ @238
    _ZNSt10_Head_baseILj0ERKiLb0EEC2ES1_ @239
    _ZNSt10_Iter_baseIN9__gnu_cxx17__normal_iteratorIP4lineSt6vectorIS2_SaIS2_EEEELb0EE7_S_baseES7_ @240
    _ZNSt10_Iter_baseIN9__gnu_cxx17__normal_iteratorIP4lineSt6vectorIS2_SaIS2_EEEELb1EE7_S_baseES7_ @241
    _ZNSt10_Iter_baseIPPiLb0EE7_S_baseES1_ @242
    _ZNSt10_Iter_baseIPiLb0EE7_S_baseES0_ @243
    _ZNSt10_Iter_baseISt20back_insert_iteratorISt6vectorIiSaIiEEELb0EE7_S_baseES4_ @244
    _ZNSt10_Iter_baseISt23_Rb_tree_const_iteratorIiELb0EE7_S_baseES1_ @245
    _ZNSt10__pair_getILj0EE11__const_getIKiiEERKT_RKSt4pairIS3_T0_E @246
    _ZNSt10__pair_getILj0EE5__getIKiiEERT_RSt4pairIS3_T0_E @247
    _ZNSt11_Deque_baseIiSaIiEE11_Deque_implC1EOS0_ @248
    _ZNSt11_Deque_baseIiSaIiEE11_Deque_implC1Ev @249
    _ZNSt11_Deque_baseIiSaIiEE11_Deque_implD1Ev @250
    _ZNSt11_Deque_baseIiSaIiEE15_M_allocate_mapEj @251
    _ZNSt11_Deque_baseIiSaIiEE15_M_create_nodesEPPiS3_ @252
    _ZNSt11_Deque_baseIiSaIiEE16_M_allocate_nodeEv @253
    _ZNSt11_Deque_baseIiSaIiEE16_M_destroy_nodesEPPiS3_ @254
    _ZNSt11_Deque_baseIiSaIiEE17_M_deallocate_mapEPPij @255
    _ZNSt11_Deque_baseIiSaIiEE17_M_initialize_mapEj @256
    _ZNSt11_Deque_baseIiSaIiEE18_M_deallocate_nodeEPi @257
    _ZNSt11_Deque_baseIiSaIiEE19_M_get_Tp_allocatorEv @258
    _ZNSt11_Deque_baseIiSaIiEEC2EOS1_ @259
    _ZNSt11_Deque_baseIiSaIiEEC2Ev @260
    _ZNSt11_Deque_baseIiSaIiEED2Ev @261
    _ZNSt11_Tuple_implILj0EIRKiEE7_M_headERS2_ @262
    _ZNSt11_Tuple_implILj0EIRKiEE7_M_tailERS2_ @263
    _ZNSt11_Tuple_implILj0EIRKiEEC2EOS2_ @264
    _ZNSt11_Tuple_implILj0EIRKiEEC2ES1_ @265
    _ZNSt11_Tuple_implILj1EIEEC2Ev @266
    _ZNSt11__copy_moveILb0ELb0ESt26bidirectional_iterator_tagE8__copy_mISt23_Rb_tree_const_iteratorIiESt20back_insert_iteratorISt6vectorIiSaIiEEEEET0_T_SB_SA_ @267
    _ZNSt11__copy_moveILb0ELb1ESt26random_access_iterator_tagE8__copy_mIPiEEPT_PKS4_S7_S5_ @268
    _ZNSt12_Destroy_auxILb1EE9__destroyIP4lineEEvT_S4_ @269
    _ZNSt12_Destroy_auxILb1EE9__destroyIPN8chipmunk13DirectedGraph4edgeEEEvT_S6_ @270
    _ZNSt12_Destroy_auxILb1EE9__destroyIPiEEvT_S3_ @271
    _ZNSt12_Vector_baseI4lineSaIS0_EE11_M_allocateEj @272
    _ZNSt12_Vector_baseI4lineSaIS0_EE12_Vector_implC1Ev @273
    _ZNSt12_Vector_baseI4lineSaIS0_EE12_Vector_implD1Ev @274
    _ZNSt12_Vector_baseI4lineSaIS0_EE13_M_deallocateEPS0_j @275
    _ZNSt12_Vector_baseI4lineSaIS0_EE19_M_get_Tp_allocatorEv @276
    _ZNSt12_Vector_baseI4lineSaIS0_EEC2Ev @277
    _ZNSt12_Vector_baseI4lineSaIS0_EED2Ev @278
    _ZNSt12_Vector_baseIN8chipmunk13DirectedGraph4edgeESaIS2_EE11_M_allocateEj @279
    _ZNSt12_Vector_baseIN8chipmunk13DirectedGraph4edgeESaIS2_EE12_Vector_implC1Ev @280
    _ZNSt12_Vector_baseIN8chipmunk13DirectedGraph4edgeESaIS2_EE13_M_deallocateEPS2_j @281
    _ZNSt12_Vector_baseIN8chipmunk13DirectedGraph4edgeESaIS2_EE19_M_get_Tp_allocatorEv @282
    _ZNSt12_Vector_baseIN8chipmunk13DirectedGraph4edgeESaIS2_EEC2Ev @283
    _ZNSt12_Vector_baseIiSaIiEE11_M_allocateEj @284
    _ZNSt12_Vector_baseIiSaIiEE12_Vector_impl12_M_swap_dataERS2_ @285
    _ZNSt12_Vector_baseIiSaIiEE12_Vector_implC1ERKS0_ @286
    _ZNSt12_Vector_baseIiSaIiEE12_Vector_implC1Ev @287
    _ZNSt12_Vector_baseIiSaIiEE12_Vector_implD1Ev @288
    _ZNSt12_Vector_baseIiSaIiEE13_M_deallocateEPij @289
    _ZNSt12_Vector_baseIiSaIiEE17_M_create_storageEj @290
    _ZNSt12_Vector_baseIiSaIiEE19_M_get_Tp_allocatorEv @291
    _ZNSt12_Vector_baseIiSaIiEEC2ERKS0_ @292
    _ZNSt12_Vector_baseIiSaIiEEC2EjRKS0_ @293
    _ZNSt12_Vector_baseIiSaIiEEC2Ev @294
    _ZNSt12_Vector_baseIiSaIiEED2Ev @295
    _ZNSt13_Rb_tree_nodeIiE9_M_valptrEv @296
    _ZNSt13move_iteratorIP4lineEC1ES1_ @297
    _ZNSt13move_iteratorIP4lineEppEv @298
    _ZNSt13move_iteratorIPN8chipmunk13DirectedGraph4edgeEEC1ES3_ @299
    _ZNSt13move_iteratorIPN8chipmunk13DirectedGraph4edgeEEppEv @300
    _ZNSt13move_iteratorIPiEC1ES0_ @301
    _ZNSt13move_iteratorIPiEppEv @302
    _ZNSt13unordered_mapIiiSt4hashIiESt8equal_toIiESaISt4pairIKiiEEEC1EjRKS1_RKS3_RKS7_ @303
    _ZNSt13unordered_mapIiiSt4hashIiESt8equal_toIiESaISt4pairIKiiEEED1Ev @304
    _ZNSt13unordered_mapIiiSt4hashIiESt8equal_toIiESaISt4pairIKiiEEEixERS5_ @305
    _ZNSt14pointer_traitsIPNSt8__detail10_Hash_nodeISt4pairIKiiELb0EEEE10pointer_toERS5_ @306
    _ZNSt14pointer_traitsIPPNSt8__detail15_Hash_node_baseEE10pointer_toERS2_ @307
    _ZNSt15_Deque_iteratorIiRiPiE11_M_set_nodeEPS1_ @308
    _ZNSt15_Deque_iteratorIiRiPiE14_S_buffer_sizeEv @309
    _ZNSt15_Deque_iteratorIiRiPiEC1ERKS2_ @310
    _ZNSt15_Deque_iteratorIiRiPiEC1Ev @311
    _ZNSt16allocator_traitsISaI4lineEE10_S_destroyIS0_EENSt9enable_ifIXsrSt6__and_IINS2_16__destroy_helperIT_E4typeEEE5valueEvE4typeERS1_PS7_ @312
    _ZNSt16allocator_traitsISaI4lineEE10deallocateERS1_PS0_j @313
    _ZNSt16allocator_traitsISaI4lineEE11_S_max_sizeIKS1_vEEjRT_i @314
    _ZNSt16allocator_traitsISaI4lineEE12_S_constructIS0_IS0_EEENSt9enable_ifIXsrSt6__and_IINS2_18__construct_helperIT_IDpT0_EE4typeEEE5valueEvE4typeERS1_PS7_DpOS8_ @315
    _ZNSt16allocator_traitsISaI4lineEE7destroyIS0_EEvRS1_PT_ @316
    _ZNSt16allocator_traitsISaI4lineEE8allocateERS1_j @317
    _ZNSt16allocator_traitsISaI4lineEE8max_sizeERKS1_ @318
    _ZNSt16allocator_traitsISaI4lineEE9constructIS0_IS0_EEEDTcl12_S_constructfp_fp0_spcl7forwardIT0_Efp1_EEERS1_PT_DpOS4_ @319
    _ZNSt16allocator_traitsISaIN8chipmunk13DirectedGraph4edgeEEE10_S_destroyIS2_EENSt9enable_ifIXsrSt6__and_IINS4_16__destroy_helperIT_E4typeEEE5valueEvE4typeERS3_PS9_ @320
    _ZNSt16allocator_traitsISaIN8chipmunk13DirectedGraph4edgeEEE10deallocateERS3_PS2_j @321
    _ZNSt16allocator_traitsISaIN8chipmunk13DirectedGraph4edgeEEE11_S_max_sizeIKS3_vEEjRT_i @322
    _ZNSt16allocator_traitsISaIN8chipmunk13DirectedGraph4edgeEEE12_S_constructIS2_IS2_EEENSt9enable_ifIXsrSt6__and_IINS4_18__construct_helperIT_IDpT0_EE4typeEEE5valueEvE4typeERS3_PS9_DpOSA_ @323
    _ZNSt16allocator_traitsISaIN8chipmunk13DirectedGraph4edgeEEE7destroyIS2_EEvRS3_PT_ @324
    _ZNSt16allocator_traitsISaIN8chipmunk13DirectedGraph4edgeEEE8allocateERS3_j @325
    _ZNSt16allocator_traitsISaIN8chipmunk13DirectedGraph4edgeEEE8max_sizeERKS3_ @326
    _ZNSt16allocator_traitsISaIN8chipmunk13DirectedGraph4edgeEEE9constructIS2_IS2_EEEDTcl12_S_constructfp_fp0_spcl7forwardIT0_Efp1_EEERS3_PT_DpOS6_ @327
    _ZNSt16allocator_traitsISaINSt8__detail10_Hash_nodeISt4pairIKiiELb0EEEEE10deallocateERS6_PS5_j @328
    _ZNSt16allocator_traitsISaINSt8__detail10_Hash_nodeISt4pairIKiiELb0EEEEE8allocateERS6_j @329
    _ZNSt16allocator_traitsISaIPNSt8__detail15_Hash_node_baseEEE10deallocateERS3_PS2_j @330
    _ZNSt16allocator_traitsISaIPNSt8__detail15_Hash_node_baseEEE8allocateERS3_j @331
    _ZNSt16allocator_traitsISaISt13_Rb_tree_nodeIiEEE10_S_destroyIiEENSt9enable_ifIXsrSt6__and_IINS3_16__destroy_helperIT_E4typeEEE5valueEvE4typeERS2_PS8_ @332
    _ZNSt16allocator_traitsISaISt13_Rb_tree_nodeIiEEE10deallocateERS2_PS1_j @333
    _ZNSt16allocator_traitsISaISt13_Rb_tree_nodeIiEEE12_S_constructIiIRKiEEENSt9enable_ifIXsrSt6__and_IINS3_18__construct_helperIT_IDpT0_EE4typeEEE5valueEvE4typeERS2_PSA_DpOSB_ @334
    _ZNSt16allocator_traitsISaISt13_Rb_tree_nodeIiEEE7destroyIiEEvRS2_PT_ @335
    _ZNSt16allocator_traitsISaISt13_Rb_tree_nodeIiEEE8allocateERS2_j @336
    _ZNSt16allocator_traitsISaISt13_Rb_tree_nodeIiEEE9constructIiIRKiEEEDTcl12_S_constructfp_fp0_spcl7forwardIT0_Efp1_EEERS2_PT_DpOS7_ @337
    _ZNSt16allocator_traitsISaISt4pairIKiiEEE10_S_destroyIS2_EENSt9enable_ifIXsrSt6__and_IINS4_16__destroy_helperIT_E4typeEEE5valueEvE4typeERS3_PS9_ @338
    _ZNSt16allocator_traitsISaISt4pairIKiiEEE12_S_constructIS2_IRKSt21piecewise_construct_tSt5tupleIIRS1_EES9_IIEEEEENSt9enable_ifIXsrSt6__and_IINS4_18__construct_helperIT_IDpT0_EE4typeEEE5valueEvE4typeERS3_PSG_DpOSH_ @339
    _ZNSt16allocator_traitsISaISt4pairIKiiEEE7destroyIS2_EEvRS3_PT_ @340
    _ZNSt16allocator_traitsISaISt4pairIKiiEEE9constructIS2_IRKSt21piecewise_construct_tSt5tupleIIRS1_EES9_IIEEEEEDTcl12_S_constructfp_fp0_spcl7forwardIT0_Efp1_EEERS3_PT_DpOSD_ @341
    _ZNSt16allocator_traitsISaIiEE10_S_destroyIiEENSt9enable_ifIXsrSt6__and_IINS1_16__destroy_helperIT_E4typeEEE5valueEvE4typeERS0_PS6_ @342
    _ZNSt16allocator_traitsISaIiEE10deallocateERS0_Pij @343
    _ZNSt16allocator_traitsISaIiEE11_S_max_sizeIKS0_vEEjRT_i @344
    _ZNSt16allocator_traitsISaIiEE12_S_constructIiIRKiEEENSt9enable_ifIXsrSt6__and_IINS1_18__construct_helperIT_IDpT0_EE4typeEEE5valueEvE4typeERS0_PS8_DpOS9_ @345
    _ZNSt16allocator_traitsISaIiEE7destroyIiEEvRS0_PT_ @346
    _ZNSt16allocator_traitsISaIiEE8allocateERS0_j @347
    _ZNSt16allocator_traitsISaIiEE8max_sizeERKS0_ @348
    _ZNSt16allocator_traitsISaIiEE9constructIiIRKiEEEDTcl12_S_constructfp_fp0_spcl7forwardIT0_Efp1_EEERS0_PT_DpOS5_ @349
    _ZNSt17_Rb_tree_iteratorIiEC1EPSt13_Rb_tree_nodeIiE @350
    _ZNSt17_Rb_tree_iteratorIiEmmEv @351
    _ZNSt20__copy_move_backwardILb0ELb1ESt26random_access_iterator_tagE13__copy_move_bIPiEEPT_PKS4_S7_S5_ @352
    _ZNSt20__copy_move_backwardILb1ELb0ESt26random_access_iterator_tagE13__copy_move_bIP4lineS4_EET0_T_S6_S5_ @353
    _ZNSt20__uninitialized_copyILb0EE13__uninit_copyISt13move_iteratorIP4lineES4_EET0_T_S7_S6_ @354
    _ZNSt20__uninitialized_copyILb0EE13__uninit_copyISt13move_iteratorIPN8chipmunk13DirectedGraph4edgeEES6_EET0_T_S9_S8_ @355
    _ZNSt20__uninitialized_copyILb0EE13__uninit_copyISt13move_iteratorIPiES3_EET0_T_S6_S5_ @356
    _ZNSt20back_insert_iteratorISt6vectorIiSaIiEEEC1ERS2_ @357
    _ZNSt20back_insert_iteratorISt6vectorIiSaIiEEEaSERKi @358
    _ZNSt20back_insert_iteratorISt6vectorIiSaIiEEEdeEv @359
    _ZNSt20back_insert_iteratorISt6vectorIiSaIiEEEppEv @360
    _ZNSt23_Rb_tree_const_iteratorIiEC1EPKSt13_Rb_tree_nodeIiE @361
    _ZNSt23_Rb_tree_const_iteratorIiEC1ERKSt17_Rb_tree_iteratorIiE @362
    _ZNSt23_Rb_tree_const_iteratorIiEppEv @363
    _ZNSt27__uninitialized_default_n_1ILb1EE18__uninit_default_nIPijEEvT_T0_ @364
    _ZNSt3setIiSt4lessIiESaIiEE6insertERKi @365
    _ZNSt3setIiSt4lessIiESaIiEEC1Ev @366
    _ZNSt3setIiSt4lessIiESaIiEED1Ev @367
    _ZNSt4pairIKiiEC1IIRS0_EIEEESt21piecewise_construct_tSt5tupleIIDpT_EES5_IIDpT0_EE @368
    _ZNSt4pairIKiiEC1IIRS0_EILj0EEIEIEEERSt5tupleIIDpT_EERS4_IIDpT1_EESt12_Index_tupleIIXspT0_EEESD_IIXspT2_EEE @369
    _ZNSt4pairIPSt18_Rb_tree_node_baseS1_EC1IRPSt13_Rb_tree_nodeIiES7_vEEOT_OT0_ @370
    _ZNSt4pairIPSt18_Rb_tree_node_baseS1_EC1IRS1_vEEOT_RKS1_ @371
    _ZNSt4pairISt17_Rb_tree_iteratorIiEbEC1IS1_bvEEOT_OT0_ @372
    _ZNSt4pairISt23_Rb_tree_const_iteratorIiEbEC1IRSt17_Rb_tree_iteratorIiERbvEEOT_OT0_ @373
    _ZNSt4pairIddEC1IiivEEOS_IT_T0_E @374
    _ZNSt4pairIddEC1IiivEERKS_IT_T0_E @375
    _ZNSt4pairIiiEC1IiivEEOT_OT0_ @376
    _ZNSt5dequeIiSaIiEE15_M_destroy_dataESt15_Deque_iteratorIiRiPiES5_RKS0_ @377
    _ZNSt5dequeIiSaIiEE16_M_pop_front_auxEv @378
    _ZNSt5dequeIiSaIiEE16_M_push_back_auxIIRKiEEEvDpOT_ @379
    _ZNSt5dequeIiSaIiEE17_M_reallocate_mapEjb @380
    _ZNSt5dequeIiSaIiEE22_M_reserve_map_at_backEj @381
    _ZNSt5dequeIiSaIiEE3endEv @382
    _ZNSt5dequeIiSaIiEE5beginEv @383
    _ZNSt5dequeIiSaIiEE5frontEv @384
    _ZNSt5dequeIiSaIiEE9pop_frontEv @385
    _ZNSt5dequeIiSaIiEE9push_backERKi @386
    _ZNSt5dequeIiSaIiEEC1EOS1_ @387
    _ZNSt5dequeIiSaIiEEC1Ev @388
    _ZNSt5dequeIiSaIiEED1Ev @389
    _ZNSt5queueIiSt5dequeIiSaIiEEE3popEv @390
    _ZNSt5queueIiSt5dequeIiSaIiEEE4pushERKi @391
    _ZNSt5queueIiSt5dequeIiSaIiEEE5frontEv @392
    _ZNSt5queueIiSt5dequeIiSaIiEEEC1EOS2_ @393
    _ZNSt5queueIiSt5dequeIiSaIiEEED1Ev @394
    _ZNSt5tupleIIRKiEEC1EOS2_ @395
    _ZNSt5tupleIIRKiEEC1ES1_ @396
    _ZNSt6vectorI4lineSaIS0_EE12emplace_backIIS0_EEEvDpOT_ @397
    _ZNSt6vectorI4lineSaIS0_EE19_M_emplace_back_auxIIS0_EEEvDpOT_ @398
    _ZNSt6vectorI4lineSaIS0_EE3endEv @399
    _ZNSt6vectorI4lineSaIS0_EE5beginEv @400
    _ZNSt6vectorI4lineSaIS0_EE9push_backEOS0_ @401
    _ZNSt6vectorI4lineSaIS0_EEC1Ev @402
    _ZNSt6vectorI4lineSaIS0_EED1Ev @403
    _ZNSt6vectorI4lineSaIS0_EEixEj @404
    _ZNSt6vectorIN8chipmunk13DirectedGraph4edgeESaIS2_EE12emplace_backIIS2_EEEvDpOT_ @405
    _ZNSt6vectorIN8chipmunk13DirectedGraph4edgeESaIS2_EE19_M_emplace_back_auxIIS2_EEEvDpOT_ @406
    _ZNSt6vectorIN8chipmunk13DirectedGraph4edgeESaIS2_EE9push_backEOS2_ @407
    _ZNSt6vectorIN8chipmunk13DirectedGraph4edgeESaIS2_EEC1Ev @408
    _ZNSt6vectorIN8chipmunk13DirectedGraph4edgeESaIS2_EEixEj @409
    _ZNSt6vectorISt4pairIS0_IiiES1_ESaIS2_EEixEj @410
    _ZNSt6vectorISt4pairIddESaIS1_EEixEj @411
    _ZNSt6vectorISt4pairIiiESaIS1_EEixEj @412
    _ZNSt6vectorIdSaIdEEixEj @413
    _ZNSt6vectorIiSaIiEE14_M_move_assignEOS1_St17integral_constantIbLb1EE @414
    _ZNSt6vectorIiSaIiEE19_M_emplace_back_auxIIRKiEEEvDpOT_ @415
    _ZNSt6vectorIiSaIiEE21_M_default_initializeEj @416
    _ZNSt6vectorIiSaIiEE3endEv @417
    _ZNSt6vectorIiSaIiEE5beginEv @418
    _ZNSt6vectorIiSaIiEE9push_backERKi @419
    _ZNSt6vectorIiSaIiEEC1ERKS0_ @420
    _ZNSt6vectorIiSaIiEEC1EjRKS0_ @421
    _ZNSt6vectorIiSaIiEEC1Ev @422
    _ZNSt6vectorIiSaIiEED1Ev @423
    _ZNSt6vectorIiSaIiEEaSEOS1_ @424
    _ZNSt6vectorIiSaIiEEixEj @425
    _ZNSt8_Rb_treeIiiSt9_IdentityIiESt4lessIiESaIiEE10_M_insert_IRKiEESt17_Rb_tree_iteratorIiEPSt18_Rb_tree_node_baseSC_OT_ @426
    _ZNSt8_Rb_treeIiiSt9_IdentityIiESt4lessIiESaIiEE11_M_get_nodeEv @427
    _ZNSt8_Rb_treeIiiSt9_IdentityIiESt4lessIiESaIiEE11_M_put_nodeEPSt13_Rb_tree_nodeIiE @428
    _ZNSt8_Rb_treeIiiSt9_IdentityIiESt4lessIiESaIiEE13_Rb_tree_implIS3_Lb1EE13_M_initializeEv @429
    _ZNSt8_Rb_treeIiiSt9_IdentityIiESt4lessIiESaIiEE13_Rb_tree_implIS3_Lb1EEC1Ev @430
    _ZNSt8_Rb_treeIiiSt9_IdentityIiESt4lessIiESaIiEE13_Rb_tree_implIS3_Lb1EED1Ev @431
    _ZNSt8_Rb_treeIiiSt9_IdentityIiESt4lessIiESaIiEE14_M_create_nodeIIRKiEEEPSt13_Rb_tree_nodeIiEDpOT_ @432
    _ZNSt8_Rb_treeIiiSt9_IdentityIiESt4lessIiESaIiEE15_M_destroy_nodeEPSt13_Rb_tree_nodeIiE @433
    _ZNSt8_Rb_treeIiiSt9_IdentityIiESt4lessIiESaIiEE16_M_insert_uniqueIRKiEESt4pairISt17_Rb_tree_iteratorIiEbEOT_ @434
    _ZNSt8_Rb_treeIiiSt9_IdentityIiESt4lessIiESaIiEE21_M_get_Node_allocatorEv @435
    _ZNSt8_Rb_treeIiiSt9_IdentityIiESt4lessIiESaIiEE24_M_get_insert_unique_posERKi @436
    _ZNSt8_Rb_treeIiiSt9_IdentityIiESt4lessIiESaIiEE5beginEv @437
    _ZNSt8_Rb_treeIiiSt9_IdentityIiESt4lessIiESaIiEE6_M_endEv @438
    _ZNSt8_Rb_treeIiiSt9_IdentityIiESt4lessIiESaIiEE6_S_keyEPKSt13_Rb_tree_nodeIiE @439
    _ZNSt8_Rb_treeIiiSt9_IdentityIiESt4lessIiESaIiEE6_S_keyEPKSt18_Rb_tree_node_base @440
    _ZNSt8_Rb_treeIiiSt9_IdentityIiESt4lessIiESaIiEE7_S_leftEPSt18_Rb_tree_node_base @441
    _ZNSt8_Rb_treeIiiSt9_IdentityIiESt4lessIiESaIiEE8_M_beginEv @442
    _ZNSt8_Rb_treeIiiSt9_IdentityIiESt4lessIiESaIiEE8_M_eraseEPSt13_Rb_tree_nodeIiE @443
    _ZNSt8_Rb_treeIiiSt9_IdentityIiESt4lessIiESaIiEE8_S_rightEPSt18_Rb_tree_node_base @444
    _ZNSt8_Rb_treeIiiSt9_IdentityIiESt4lessIiESaIiEE8_S_valueEPKSt13_Rb_tree_nodeIiE @445
    _ZNSt8_Rb_treeIiiSt9_IdentityIiESt4lessIiESaIiEE8_S_valueEPKSt18_Rb_tree_node_base @446
    _ZNSt8_Rb_treeIiiSt9_IdentityIiESt4lessIiESaIiEEC1Ev @447
    _ZNSt8_Rb_treeIiiSt9_IdentityIiESt4lessIiESaIiEED1Ev @448
    _ZNSt8__detail10_Hash_nodeISt4pairIKiiELb0EEC1Ev @449
    _ZNSt8__detail12_Insert_baseIiSt4pairIKiiESaIS3_ENS_10_Select1stESt8equal_toIiESt4hashIiENS_18_Mod_range_hashingENS_20_Default_ranged_hashENS_20_Prime_rehash_policyENS_17_Hashtable_traitsILb0ELb0ELb1EEEEC2Ev @450
    _ZNSt8__detail13_Equal_helperIiSt4pairIKiiENS_10_Select1stESt8equal_toIiEjLb0EE9_S_equalsERKS6_RKS4_RS2_jPNS_10_Hash_nodeIS3_Lb0EEE @451
    _ZNSt8__detail14_Node_iteratorISt4pairIKiiELb0ELb0EEC1EPNS_10_Hash_nodeIS3_Lb0EEE @452
    _ZNSt8__detail15_Hash_code_baseIiSt4pairIKiiENS_10_Select1stESt4hashIiENS_18_Mod_range_hashingENS_20_Default_ranged_hashELb0EE10_M_extractEv @453
    _ZNSt8__detail15_Hash_code_baseIiSt4pairIKiiENS_10_Select1stESt4hashIiENS_18_Mod_range_hashingENS_20_Default_ranged_hashELb0EEC2ERKS4_RKS6_RKS7_RKS8_ @454
    _ZNSt8__detail15_Hash_node_baseC1Ev @455
    _ZNSt8__detail15_Hash_node_baseC2Ev @456
    _ZNSt8__detail15_Hashtable_baseIiSt4pairIKiiENS_10_Select1stESt8equal_toIiESt4hashIiENS_18_Mod_range_hashingENS_20_Default_ranged_hashENS_17_Hashtable_traitsILb0ELb0ELb1EEEEC2ERKS4_RKS8_RKS9_RKSA_RKS6_ @457
    _ZNSt8__detail16_Hashtable_allocISaINS_10_Hash_nodeISt4pairIKiiELb0EEEEE16_M_allocate_nodeIIRKSt21piecewise_construct_tSt5tupleIIRS3_EESC_IIEEEEEPS5_DpOT_ @458
    _ZNSt8__detail16_Hashtable_allocISaINS_10_Hash_nodeISt4pairIKiiELb0EEEEE17_M_node_allocatorEv @459
    _ZNSt8__detail16_Hashtable_allocISaINS_10_Hash_nodeISt4pairIKiiELb0EEEEE18_M_deallocate_nodeEPS5_ @460
    _ZNSt8__detail16_Hashtable_allocISaINS_10_Hash_nodeISt4pairIKiiELb0EEEEE19_M_allocate_bucketsEj @461
    _ZNSt8__detail16_Hashtable_allocISaINS_10_Hash_nodeISt4pairIKiiELb0EEEEE19_M_deallocate_nodesEPS5_ @462
    _ZNSt8__detail16_Hashtable_allocISaINS_10_Hash_nodeISt4pairIKiiELb0EEEEE21_M_deallocate_bucketsEPPNS_15_Hash_node_baseEj @463
    _ZNSt8__detail16_Hashtable_allocISaINS_10_Hash_nodeISt4pairIKiiELb0EEEEEC2IS6_EEOT_ @464
    _ZNSt8__detail16_Hashtable_allocISaINS_10_Hash_nodeISt4pairIKiiELb0EEEEED2Ev @465
    _ZNSt8__detail19_Node_iterator_baseISt4pairIKiiELb0EEC2EPNS_10_Hash_nodeIS3_Lb0EEE @466
    _ZNSt8__detail20_Prime_rehash_policy8_M_resetEj @467
    _ZNSt8__detail20_Prime_rehash_policyC1Ef @468
    _ZNSt8__detail21_Hash_node_value_baseISt4pairIKiiEE4_M_vEv @469
    _ZNSt8__detail21_Hash_node_value_baseISt4pairIKiiEE9_M_valptrEv @470
    _ZNSt8__detail21_Hash_node_value_baseISt4pairIKiiEEC2Ev @471
    _ZNSt8__detail21_Hashtable_ebo_helperILi0ENS_10_Select1stELb1EE6_S_getERS2_ @472
    _ZNSt8__detail21_Hashtable_ebo_helperILi0ENS_10_Select1stELb1EE7_S_cgetERKS2_ @473
    _ZNSt8__detail21_Hashtable_ebo_helperILi0ENS_10_Select1stELb1EEC2IRKS1_EEOT_ @474
    _ZNSt8__detail21_Hashtable_ebo_helperILi0ESaINS_10_Hash_nodeISt4pairIKiiELb0EEEELb1EE6_S_getERS7_ @475
    _ZNSt8__detail21_Hashtable_ebo_helperILi0ESaINS_10_Hash_nodeISt4pairIKiiELb0EEEELb1EEC2IS6_EEOT_ @476
    _ZNSt8__detail21_Hashtable_ebo_helperILi0ESaINS_10_Hash_nodeISt4pairIKiiELb0EEEELb1EED2Ev @477
    _ZNSt8__detail21_Hashtable_ebo_helperILi0ESt8equal_toIiELb1EE7_S_cgetERKS3_ @478
    _ZNSt8__detail21_Hashtable_ebo_helperILi0ESt8equal_toIiELb1EEC2IRKS2_EEOT_ @479
    _ZNSt8__detail21_Hashtable_ebo_helperILi1ESt4hashIiELb1EE7_S_cgetERKS3_ @480
    _ZNSt8__detail21_Hashtable_ebo_helperILi1ESt4hashIiELb1EEC2IRKS2_EEOT_ @481
    _ZNSt8__detail21_Hashtable_ebo_helperILi2ENS_18_Mod_range_hashingELb1EE7_S_cgetERKS2_ @482
    _ZNSt8__detail21_Hashtable_ebo_helperILi2ENS_18_Mod_range_hashingELb1EEC2IRKS1_EEOT_ @483
    _ZNSt8__detail7_InsertIiSt4pairIKiiESaIS3_ENS_10_Select1stESt8equal_toIiESt4hashIiENS_18_Mod_range_hashingENS_20_Default_ranged_hashENS_20_Prime_rehash_policyENS_17_Hashtable_traitsILb0ELb0ELb1EEELb0ELb1EEC2Ev @484
    _ZNSt8__detail9_EqualityIiSt4pairIKiiESaIS3_ENS_10_Select1stESt8equal_toIiESt4hashIiENS_18_Mod_range_hashingENS_20_Default_ranged_hashENS_20_Prime_rehash_policyENS_17_Hashtable_traitsILb0ELb0ELb1EEELb1EEC2Ev @485
    _ZNSt8__detail9_Map_baseIiSt4pairIKiiESaIS3_ENS_10_Select1stESt8equal_toIiESt4hashIiENS_18_Mod_range_hashingENS_20_Default_ranged_hashENS_20_Prime_rehash_policyENS_17_Hashtable_traitsILb0ELb0ELb1EEELb1EEixERS2_ @486
    _ZNSt8iteratorISt19output_iterator_tagvvvvEC2Ev @487
    _ZSt10_ConstructI4lineIS0_EEvPT_DpOT0_ @488
    _ZSt10_ConstructIN8chipmunk13DirectedGraph4edgeEIS2_EEvPT_DpOT0_ @489
    _ZSt10_ConstructIiIiEEvPT_DpOT0_ @490
    _ZSt10__fill_n_aIPijiEN9__gnu_cxx11__enable_ifIXsrSt11__is_scalarIT1_E7__valueET_E6__typeES6_T0_RKS4_ @491
    _ZSt10__pop_heapIN9__gnu_cxx17__normal_iteratorIP4lineSt6vectorIS2_SaIS2_EEEENS0_5__ops15_Iter_comp_iterIPFbRKS2_SB_EEEEvT_SF_SF_T0_ @492
    _ZSt11__addressofI4lineEPT_RS1_ @493
    _ZSt11__addressofIN8chipmunk13DirectedGraph4edgeEEPT_RS3_ @494
    _ZSt11__addressofINSt8__detail10_Hash_nodeISt4pairIKiiELb0EEEEPT_RS6_ @495
    _ZSt11__addressofIPNSt8__detail15_Hash_node_baseEEPT_RS3_ @496
    _ZSt11__addressofIiEPT_RS0_ @497
    _ZSt11__make_heapIN9__gnu_cxx17__normal_iteratorIP4lineSt6vectorIS2_SaIS2_EEEENS0_5__ops15_Iter_comp_iterIPFbRKS2_SB_EEEEvT_SF_T0_ @498
    _ZSt11__push_heapIN9__gnu_cxx17__normal_iteratorIP4lineSt6vectorIS2_SaIS2_EEEEiS2_NS0_5__ops14_Iter_comp_valIPFbRKS2_SB_EEEEvT_T0_SG_T1_T2_ @499
    _ZSt11__sort_heapIN9__gnu_cxx17__normal_iteratorIP4lineSt6vectorIS2_SaIS2_EEEENS0_5__ops15_Iter_comp_iterIPFbRKS2_SB_EEEEvT_SF_T0_ @500
    _ZSt12__get_helperILj0ERKiIEENSt9__add_refIT0_E4typeERSt11_Tuple_implIXT_EIS3_DpT1_EE @501
    _ZSt12__miter_baseIN9__gnu_cxx17__normal_iteratorIP4lineSt6vectorIS2_SaIS2_EEEEENSt11_Miter_baseIT_E13iterator_typeES9_ @502
    _ZSt12__miter_baseIPPiENSt11_Miter_baseIT_E13iterator_typeES3_ @503
    _ZSt12__miter_baseISt23_Rb_tree_const_iteratorIiEENSt11_Miter_baseIT_E13iterator_typeES3_ @504
    _ZSt12__niter_baseIN9__gnu_cxx17__normal_iteratorIP4lineSt6vectorIS2_SaIS2_EEEEENSt11_Niter_baseIT_E13iterator_typeES9_ @505
    _ZSt12__niter_baseIPPiENSt11_Niter_baseIT_E13iterator_typeES3_ @506
    _ZSt12__niter_baseIPiENSt11_Niter_baseIT_E13iterator_typeES2_ @507
    _ZSt12__niter_baseISt20back_insert_iteratorISt6vectorIiSaIiEEEENSt11_Niter_baseIT_E13iterator_typeES6_ @508
    _ZSt12__niter_baseISt23_Rb_tree_const_iteratorIiEENSt11_Niter_baseIT_E13iterator_typeES3_ @509
    _ZSt13__adjust_heapIN9__gnu_cxx17__normal_iteratorIP4lineSt6vectorIS2_SaIS2_EEEEiS2_NS0_5__ops15_Iter_comp_iterIPFbRKS2_SB_EEEEvT_T0_SG_T1_T2_ @510
    _ZSt13__copy_move_aILb0EPPiS1_ET1_T0_S3_S2_ @511
    _ZSt13__copy_move_aILb0ESt23_Rb_tree_const_iteratorIiESt20back_insert_iteratorISt6vectorIiSaIiEEEET1_T0_S8_S7_ @512
    _ZSt13__heap_selectIN9__gnu_cxx17__normal_iteratorIP4lineSt6vectorIS2_SaIS2_EEEENS0_5__ops15_Iter_comp_iterIPFbRKS2_SB_EEEEvT_SF_SF_T0_ @513
    _ZSt13back_inserterISt6vectorIiSaIiEEESt20back_insert_iteratorIT_ERS4_ @514
    _ZSt13copy_backwardIPPiS1_ET0_T_S3_S2_ @515
    _ZSt13move_backwardIN9__gnu_cxx17__normal_iteratorIP4lineSt6vectorIS2_SaIS2_EEEES7_ET0_T_S9_S8_ @516
    _ZSt14__copy_move_a2ILb0EPPiS1_ET1_T0_S3_S2_ @517
    _ZSt14__copy_move_a2ILb0ESt23_Rb_tree_const_iteratorIiESt20back_insert_iteratorISt6vectorIiSaIiEEEET1_T0_S8_S7_ @518
    _ZSt14__partial_sortIN9__gnu_cxx17__normal_iteratorIP4lineSt6vectorIS2_SaIS2_EEEENS0_5__ops15_Iter_comp_iterIPFbRKS2_SB_EEEEvT_SF_SF_T0_ @519
    _ZSt15__alloc_on_moveISaIiEEvRT_S2_ @520
    _ZSt16__deque_buf_sizej @521
    _ZSt16__insertion_sortIN9__gnu_cxx17__normal_iteratorIP4lineSt6vectorIS2_SaIS2_EEEENS0_5__ops15_Iter_comp_iterIPFbRKS2_SB_EEEEvT_SF_T0_ @522
    _ZSt16__introsort_loopIN9__gnu_cxx17__normal_iteratorIP4lineSt6vectorIS2_SaIS2_EEEEiNS0_5__ops15_Iter_comp_iterIPFbRKS2_SB_EEEEvT_SF_T0_T1_ @523
    _ZSt18__do_alloc_on_moveISaIiEEvRT_S2_St17integral_constantIbLb1EE @524
    _ZSt18uninitialized_copyISt13move_iteratorIP4lineES2_ET0_T_S5_S4_ @525
    _ZSt18uninitialized_copyISt13move_iteratorIPN8chipmunk13DirectedGraph4edgeEES4_ET0_T_S7_S6_ @526
    _ZSt18uninitialized_copyISt13move_iteratorIPiES1_ET0_T_S4_S3_ @527
    _ZSt21__unguarded_partitionIN9__gnu_cxx17__normal_iteratorIP4lineSt6vectorIS2_SaIS2_EEEENS0_5__ops15_Iter_comp_iterIPFbRKS2_SB_EEEET_SF_SF_SF_T0_ @528
    _ZSt22__copy_move_backward_aILb0EPPiS1_ET1_T0_S3_S2_ @529
    _ZSt22__copy_move_backward_aILb1EP4lineS1_ET1_T0_S3_S2_ @530
    _ZSt22__final_insertion_sortIN9__gnu_cxx17__normal_iteratorIP4lineSt6vectorIS2_SaIS2_EEEENS0_5__ops15_Iter_comp_iterIPFbRKS2_SB_EEEEvT_SF_T0_ @531
    _ZSt22__move_median_to_firstIN9__gnu_cxx17__normal_iteratorIP4lineSt6vectorIS2_SaIS2_EEEENS0_5__ops15_Iter_comp_iterIPFbRKS2_SB_EEEEvT_SF_SF_SF_T0_ @532
    _ZSt22__uninitialized_copy_aISt13move_iteratorIP4lineES2_S1_ET0_T_S5_S4_RSaIT1_E @533
    _ZSt22__uninitialized_copy_aISt13move_iteratorIPN8chipmunk13DirectedGraph4edgeEES4_S3_ET0_T_S7_S6_RSaIT1_E @534
    _ZSt22__uninitialized_copy_aISt13move_iteratorIPiES1_iET0_T_S4_S3_RSaIT1_E @535
    _ZSt23__copy_move_backward_a2ILb0EPPiS1_ET1_T0_S3_S2_ @536
    _ZSt23__copy_move_backward_a2ILb1EN9__gnu_cxx17__normal_iteratorIP4lineSt6vectorIS2_SaIS2_EEEES7_ET1_T0_S9_S8_ @537
    _ZSt25__unguarded_linear_insertIN9__gnu_cxx17__normal_iteratorIP4lineSt6vectorIS2_SaIS2_EEEENS0_5__ops14_Val_comp_iterIPFbRKS2_SB_EEEEvT_T0_ @538
    _ZSt25__uninitialized_default_nIPijEvT_T0_ @539
    _ZSt26__unguarded_insertion_sortIN9__gnu_cxx17__normal_iteratorIP4lineSt6vectorIS2_SaIS2_EEEENS0_5__ops15_Iter_comp_iterIPFbRKS2_SB_EEEEvT_SF_T0_ @540
    _ZSt27__unguarded_partition_pivotIN9__gnu_cxx17__normal_iteratorIP4lineSt6vectorIS2_SaIS2_EEEENS0_5__ops15_Iter_comp_iterIPFbRKS2_SB_EEEET_SF_SF_T0_ @541
    _ZSt27__uninitialized_default_n_aIPijiEvT_T0_RSaIT1_E @542
    _ZSt32__make_move_if_noexcept_iteratorIP4lineSt13move_iteratorIS1_EET0_T_ @543
    _ZSt32__make_move_if_noexcept_iteratorIPN8chipmunk13DirectedGraph4edgeESt13move_iteratorIS3_EET0_T_ @544
    _ZSt32__make_move_if_noexcept_iteratorIPiSt13move_iteratorIS0_EET0_T_ @545
    _ZSt34__uninitialized_move_if_noexcept_aIP4lineS1_SaIS0_EET0_T_S4_S3_RT1_ @546
    _ZSt34__uninitialized_move_if_noexcept_aIPN8chipmunk13DirectedGraph4edgeES3_SaIS2_EET0_T_S6_S5_RT1_ @547
    _ZSt34__uninitialized_move_if_noexcept_aIPiS0_SaIiEET0_T_S3_S2_RT1_ @548
    _ZSt3absd @549
    _ZSt3getILj0EIRKiEENSt9__add_refINSt13tuple_elementIXT_ESt5tupleIIDpT0_EEE4typeEE4typeERS7_ @550
    _ZSt3getILj0EKiiERKNSt13tuple_elementIXT_ESt4pairIT0_T1_EE4typeERKS5_ @551
    _ZSt3getILj0EKiiERNSt13tuple_elementIXT_ESt4pairIT0_T1_EE4typeERS5_ @552
    _ZSt3maxIiERKT_S2_S2_ @553
    _ZSt3maxIjERKT_S2_S2_ @554
    _ZSt3minIiERKT_S2_S2_ @555
    _ZSt4__lgi @556
    _ZSt4copyIPPiS1_ET0_T_S3_S2_ @557
    _ZSt4copyISt23_Rb_tree_const_iteratorIiESt20back_insert_iteratorISt6vectorIiSaIiEEEET0_T_S8_S7_ @558
    _ZSt4moveIR4lineEONSt16remove_referenceIT_E4typeEOS3_ @559
    _ZSt4moveIRN8chipmunk13DirectedGraph4edgeEEONSt16remove_referenceIT_E4typeEOS5_ @560
    _ZSt4moveIRPPiEONSt16remove_referenceIT_E4typeEOS4_ @561
    _ZSt4moveIRPiEONSt16remove_referenceIT_E4typeEOS3_ @562
    _ZSt4moveIRSaIiEEONSt16remove_referenceIT_E4typeEOS3_ @563
    _ZSt4moveIRSt11_Tuple_implILj1EIEEEONSt16remove_referenceIT_E4typeEOS4_ @564
    _ZSt4moveIRSt15_Deque_iteratorIiRiPiEEONSt16remove_referenceIT_E4typeEOS6_ @565
    _ZSt4moveIRSt5dequeIiSaIiEEEONSt16remove_referenceIT_E4typeEOS5_ @566
    _ZSt4moveIRSt6vectorIiSaIiEEEONSt16remove_referenceIT_E4typeEOS5_ @567
    _ZSt4moveIRiEONSt16remove_referenceIT_E4typeEOS2_ @568
    _ZSt4moveIRjEONSt16remove_referenceIT_E4typeEOS2_ @569
    _ZSt4sortIN9__gnu_cxx17__normal_iteratorIP4lineSt6vectorIS2_SaIS2_EEEEPFbRKS2_S9_EEvT_SC_T0_ @570
    _ZSt4swapI4lineEvRT_S2_ @571
    _ZSt4swapIPPiEvRT_S3_ @572
    _ZSt4swapIPiEvRT_S2_ @573
    _ZSt4swapISt15_Deque_iteratorIiRiPiEEvRT_S5_ @574
    _ZSt4swapIjEvRT_S1_ @575
    _ZSt6__sortIN9__gnu_cxx17__normal_iteratorIP4lineSt6vectorIS2_SaIS2_EEEENS0_5__ops15_Iter_comp_iterIPFbRKS2_SB_EEEEvT_SF_T0_ @576
    _ZSt6fill_nIPijiET_S1_T0_RKT1_ @577
    _ZSt7forwardI4lineEOT_RNSt16remove_referenceIS1_E4typeE @578
    _ZSt7forwardIN8chipmunk13DirectedGraph4edgeEEOT_RNSt16remove_referenceIS3_E4typeE @579
    _ZSt7forwardIRKNSt8__detail10_Select1stEEOT_RNSt16remove_referenceIS4_E4typeE @580
    _ZSt7forwardIRKNSt8__detail18_Mod_range_hashingEEOT_RNSt16remove_referenceIS4_E4typeE @581
    _ZSt7forwardIRKSt21piecewise_construct_tEOT_RNSt16remove_referenceIS3_E4typeE @582
    _ZSt7forwardIRKSt4hashIiEEOT_RNSt16remove_referenceIS4_E4typeE @583
    _ZSt7forwardIRKSt4pairIKiiEEOT_RNSt16remove_referenceIS5_E4typeE @584
    _ZSt7forwardIRKSt8equal_toIiEEOT_RNSt16remove_referenceIS4_E4typeE @585
    _ZSt7forwardIRKiEOT_RNSt16remove_referenceIS2_E4typeE @586
    _ZSt7forwardIRPSt13_Rb_tree_nodeIiEEOT_RNSt16remove_referenceIS4_E4typeE @587
    _ZSt7forwardIRPSt18_Rb_tree_node_baseEOT_RNSt16remove_referenceIS3_E4typeE @588
    _ZSt7forwardIRSt17_Rb_tree_iteratorIiEEOT_RNSt16remove_referenceIS3_E4typeE @589
    _ZSt7forwardIRSt4pairIKiiEEOT_RNSt16remove_referenceIS4_E4typeE @590
    _ZSt7forwardIRbEOT_RNSt16remove_referenceIS1_E4typeE @591
    _ZSt7forwardISaINSt8__detail10_Hash_nodeISt4pairIKiiELb0EEEEEOT_RNSt16remove_referenceIS7_E4typeE @592
    _ZSt7forwardISt17_Rb_tree_iteratorIiEEOT_RNSt16remove_referenceIS2_E4typeE @593
    _ZSt7forwardISt5tupleIIEEEOT_RNSt16remove_referenceIS2_E4typeE @594
    _ZSt7forwardISt5tupleIIRKiEEEOT_RNSt16remove_referenceIS4_E4typeE @595
    _ZSt7forwardIbEOT_RNSt16remove_referenceIS0_E4typeE @596
    _ZSt7forwardIiEOT_RNSt16remove_referenceIS0_E4typeE @597
    _ZSt8_DestroyIP4lineEvT_S2_ @598
    _ZSt8_DestroyIP4lineS0_EvT_S2_RSaIT0_E @599
    _ZSt8_DestroyIPN8chipmunk13DirectedGraph4edgeEEvT_S4_ @600
    _ZSt8_DestroyIPN8chipmunk13DirectedGraph4edgeES2_EvT_S4_RSaIT0_E @601
    _ZSt8_DestroyIPiEvT_S1_ @602
    _ZSt8_DestroyIPiiEvT_S1_RSaIT0_E @603
    _ZSt9addressofINSt8__detail10_Hash_nodeISt4pairIKiiELb0EEEEPT_RS6_ @604
    _ZSt9addressofIPNSt8__detail15_Hash_node_baseEEPT_RS3_ @605
    _ZSt9iter_swapIN9__gnu_cxx17__normal_iteratorIP4lineSt6vectorIS2_SaIS2_EEEES7_EvT_T0_ @606
    _ZSt9make_pairIiiESt4pairINSt17__decay_and_stripIT_E6__typeENS1_IT0_E6__typeEEOS2_OS5_ @607
    _ZSteqIP4lineEbRKSt13move_iteratorIT_ES6_ @608
    _ZSteqIPN8chipmunk13DirectedGraph4edgeEEbRKSt13move_iteratorIT_ES8_ @609
    _ZSteqIPiEbRKSt13move_iteratorIT_ES5_ @610
    _ZSteqIiRiPiEbRKSt15_Deque_iteratorIT_T0_T1_ES8_ @611
    _ZStneIP4lineEbRKSt13move_iteratorIT_ES6_ @612
    _ZStneIPN8chipmunk13DirectedGraph4edgeEEbRKSt13move_iteratorIT_ES8_ @613
    _ZStneIPiEbRKSt13move_iteratorIT_ES5_ @614
    _ZdlPvS_ @615
    _ZnwjPv @616
    _get_output_format @617
    main @618
